target datalayout = "e-m:e-p270:32:32-p271:32:32-p272:64:64-i64:64-i128:128-f80:128-n8:16:32:64-S128"
target triple = "x86_64-pc-linux-gnu"

%class.QFont = type <{ %class.QExplicitlySharedDataPointer, i32, [4 x i8] }>
%class.QExplicitlySharedDataPointer = type { ptr }
%class.PrintDialog = type <{ %class.QDialog, ptr, %class.QPrinter, ptr, ptr, ptr, ptr, %class.QFont, %class.QFont, ptr, %struct.print_args_t, %struct.print_stream_ops, %struct.print_stream, i32, i8, [3 x i8] }>
%class.QDialog = type { %class.QWidget }
%class.QWidget = type { %class.QObject, %class.QPaintDevice.base, ptr }
%class.QObject = type { ptr, %class.QScopedPointer }
%class.QScopedPointer = type { ptr }
%class.QPaintDevice.base = type <{ ptr, i16 }>
%class.QPrinter = type { %class.QPagedPaintDevice, %class.QScopedPointer.0 }
%class.QPagedPaintDevice = type { %class.QPaintDevice.base, ptr }
%class.QScopedPointer.0 = type { ptr }
%struct.print_args_t = type { ptr, i32, i32, ptr, ptr, %struct.packet_range_tag, i32, i32, i32, i32, i32, i32 }
%struct.packet_range_tag = type { i32, i32, i32, i32, ptr, i32, ptr, i32, ptr, i32, i32, i32, i32, i32, i32, i32, i32, i32, i32, i32, i32, i32, i32, i32, i32, i32, i32, i32, i32, i32, i32, i32, i32, i32, i32, i32, ptr, ptr, ptr, ptr, ptr, ptr, ptr, ptr, i32, i32 }
%struct.print_stream_ops = type { ptr, ptr, ptr, ptr, ptr, ptr, ptr }
%struct.print_stream = type { ptr, ptr }
%class.Ui_PrintDialog = type { ptr, ptr, ptr, ptr, ptr, ptr, ptr, ptr, ptr, ptr }

; Function Attrs: mustprogress uwtable
define void @_ZN11PrintDialog20on_buttonBox_clickedEP15QAbstractButton(ptr noundef nonnull align 8 dereferenceable(525) %0, ptr noundef %1) #0 align 2 personality ptr @__gxx_personality_v0 {
  %3 = alloca ptr, align 8
  %4 = alloca ptr, align 8
  %5 = alloca ptr, align 8
  %6 = alloca ptr, align 8
  %7 = alloca i32, align 4
  %8 = alloca ptr, align 8
  %9 = alloca i32, align 4
  store ptr %0, ptr %3, align 8
  store ptr %1, ptr %4, align 8
  %10 = load ptr, ptr %3, align 8
  %11 = getelementptr inbounds %class.PrintDialog, ptr %10, i32 0, i32 1
  %12 = load ptr, ptr %11, align 8
  %13 = getelementptr inbounds %class.Ui_PrintDialog, ptr %12, i32 0, i32 9
  %14 = load ptr, ptr %13, align 8
  %15 = load ptr, ptr %4, align 8
  %16 = call noundef i32 @_ZNK16QDialogButtonBox10buttonRoleEP15QAbstractButton(ptr noundef nonnull align 8 dereferenceable(40) %14, ptr noundef %15)
  switch i32 %16, label %54 [
    i32 3, label %17
    i32 7, label %39
  ]

17:                                               ; preds = %2
  %18 = call noalias noundef nonnull ptr @_Znwm(i64 noundef 40) #15
  %19 = getelementptr inbounds %class.PrintDialog, ptr %10, i32 0, i32 2
  invoke void @_ZN12QPrintDialogC1EP8QPrinterP7QWidget(ptr noundef nonnull align 8 dereferenceable(40) %18, ptr noundef %19, ptr noundef %10)
          to label %20 unwind label %34

20:                                               ; preds = %17
  store ptr %18, ptr %5, align 8
  %21 = load ptr, ptr %5, align 8
  %22 = load ptr, ptr %21, align 8
  %23 = getelementptr inbounds ptr, ptr %22, i64 53
  %24 = load ptr, ptr %23, align 8
  %25 = call noundef i32 %24(ptr noundef nonnull align 8 dereferenceable(40) %21)
  store i32 %25, ptr %7, align 4
  %26 = load i32, ptr %7, align 4
  %27 = icmp eq i32 %26, 1
  br i1 %27, label %28, label %38

28:                                               ; preds = %20
  %29 = getelementptr inbounds %class.PrintDialog, ptr %10, i32 0, i32 2
  call void @_ZN11PrintDialog12printPacketsEP8QPrinterb(ptr noundef nonnull align 8 dereferenceable(525) %10, ptr noundef %29, i1 noundef zeroext false)
  %30 = load i32, ptr %7, align 4
  %31 = load ptr, ptr %10, align 8
  %32 = getelementptr inbounds ptr, ptr %31, i64 54
  %33 = load ptr, ptr %32, align 8
  call void %33(ptr noundef nonnull align 8 dereferenceable(40) %10, i32 noundef %30)
  br label %38

34:                                               ; preds = %17
  %35 = landingpad { ptr, i32 }
          cleanup
  %36 = extractvalue { ptr, i32 } %35, 0
  store ptr %36, ptr %8, align 8
  %37 = extractvalue { ptr, i32 } %35, 1
  store i32 %37, ptr %9, align 4
  call void @_ZdlPv(ptr noundef %18) #16
  br label %56

38:                                               ; preds = %28, %20
  br label %55

39:                                               ; preds = %2
  %40 = call noalias noundef nonnull ptr @_Znwm(i64 noundef 40) #15
  %41 = getelementptr inbounds %class.PrintDialog, ptr %10, i32 0, i32 2
  invoke void @_ZN16QPageSetupDialogC1EP8QPrinterP7QWidget(ptr noundef nonnull align 8 dereferenceable(40) %40, ptr noundef %41, ptr noundef %10)
          to label %42 unwind label %50

42:                                               ; preds = %39
  store ptr %40, ptr %6, align 8
  %43 = load ptr, ptr %6, align 8
  %44 = load ptr, ptr %43, align 8
  %45 = getelementptr inbounds ptr, ptr %44, i64 53
  %46 = load ptr, ptr %45, align 8
  %47 = call noundef i32 %46(ptr noundef nonnull align 8 dereferenceable(40) %43)
  %48 = getelementptr inbounds %class.PrintDialog, ptr %10, i32 0, i32 5
  %49 = load ptr, ptr %48, align 8
  call void @_ZN19QPrintPreviewWidget13updatePreviewEv(ptr noundef nonnull align 8 dereferenceable(40) %49)
  br label %55

50:                                               ; preds = %39
  %51 = landingpad { ptr, i32 }
          cleanup
  %52 = extractvalue { ptr, i32 } %51, 0
  store ptr %52, ptr %8, align 8
  %53 = extractvalue { ptr, i32 } %51, 1
  store i32 %53, ptr %9, align 4
  call void @_ZdlPv(ptr noundef %40) #16
  br label %56

54:                                               ; preds = %2
  br label %55

55:                                               ; preds = %54, %42, %38
  ret void

56:                                               ; preds = %50, %34
  %57 = load ptr, ptr %8, align 8
  %58 = load i32, ptr %9, align 4
  %59 = insertvalue { ptr, i32 } poison, ptr %57, 0
  %60 = insertvalue { ptr, i32 } %59, i32 %58, 1
  resume { ptr, i32 } %60
}