; Function Attrs: mustprogress uwtable
define void @_ZN11PrintDialog20on_buttonBox_clickedEP15QAbstractButton(ptr noundef nonnull align 8 dereferenceable(525) %0, ptr noundef %1) local_unnamed_addr #0 align 2 personality ptr @__gxx_personality_v0 {
  %3 = getelementptr inbounds i8, ptr %0, i64 40
  %4 = load ptr, ptr %3, align 8
  %5 = getelementptr inbounds i8, ptr %4, i64 72
  %6 = load ptr, ptr %5, align 8
  %7 = tail call noundef i32 @_ZNK16QDialogButtonBox10buttonRoleEP15QAbstractButton(ptr noundef nonnull align 8 dereferenceable(40) %6, ptr noundef %1)
  switch i32 %7, label %35 [
    i32 3, label %8
    i32 7, label %23
  ]

8:                                                ; preds = %2
  %9 = tail call noalias noundef nonnull dereferenceable(40) ptr @_Znwm(i64 noundef 40) #15
  %10 = getelementptr inbounds i8, ptr %0, i64 48
  invoke void @_ZN12QPrintDialogC1EP8QPrinterP7QWidget(ptr noundef nonnull align 8 dereferenceable(40) %9, ptr noundef nonnull %10, ptr noundef nonnull %0)
          to label %11 unwind label %21

11:                                               ; preds = %8
  %12 = load ptr, ptr %9, align 8
  %13 = getelementptr inbounds i8, ptr %12, i64 424
  %14 = load ptr, ptr %13, align 8
  %15 = tail call noundef i32 %14(ptr noundef nonnull align 8 dereferenceable(40) %9)
  %16 = icmp eq i32 %15, 1
  br i1 %16, label %17, label %35

17:                                               ; preds = %11
  tail call void @_ZN11PrintDialog12printPacketsEP8QPrinterb(ptr noundef nonnull align 8 dereferenceable(525) %0, ptr noundef nonnull %10, i1 noundef zeroext false)
  %18 = load ptr, ptr %0, align 8
  %19 = getelementptr inbounds i8, ptr %18, i64 432
  %20 = load ptr, ptr %19, align 8
  tail call void %20(ptr noundef nonnull align 8 dereferenceable(40) %0, i32 noundef 1)
  br label %35

21:                                               ; preds = %8
  %22 = landingpad { ptr, i32 }
          cleanup
  br label %36

23:                                               ; preds = %2
  %24 = tail call noalias noundef nonnull dereferenceable(40) ptr @_Znwm(i64 noundef 40) #15
  %25 = getelementptr inbounds i8, ptr %0, i64 48
  invoke void @_ZN16QPageSetupDialogC1EP8QPrinterP7QWidget(ptr noundef nonnull align 8 dereferenceable(40) %24, ptr noundef nonnull %25, ptr noundef nonnull %0)
          to label %26 unwind label %33

26:                                               ; preds = %23
  %27 = load ptr, ptr %24, align 8
  %28 = getelementptr inbounds i8, ptr %27, i64 424
  %29 = load ptr, ptr %28, align 8
  %30 = tail call noundef i32 %29(ptr noundef nonnull align 8 dereferenceable(40) %24)
  %31 = getelementptr inbounds i8, ptr %0, i64 96
  %32 = load ptr, ptr %31, align 8
  tail call void @_ZN19QPrintPreviewWidget13updatePreviewEv(ptr noundef nonnull align 8 dereferenceable(40) %32)
  br label %35

33:                                               ; preds = %23
  %34 = landingpad { ptr, i32 }
          cleanup
  br label %36

35:                                               ; preds = %2, %11, %17, %26
  ret void

36:                                               ; preds = %33, %21
  %.sink = phi ptr [ %24, %33 ], [ %9, %21 ]
  %.pn = phi { ptr, i32 } [ %34, %33 ], [ %22, %21 ]
  tail call void @_ZdlPv(ptr noundef nonnull %.sink) #17
  resume { ptr, i32 } %.pn
}